; Function Attrs: nounwind uwtable
define noalias nonnull ptr @l_Lean_Widget_instAppendExprDiff(ptr noundef %0, ptr noundef %1) local_unnamed_addr #0 {
  %3 = getelementptr inbounds nuw i8, ptr %0, i64 8
  %4 = load ptr, ptr %3, align 8, !tbaa !4
  %5 = ptrtoint ptr %4 to i64
  %6 = and i64 %5, 1
  %.not = icmp eq i64 %6, 0
  br i1 %.not, label %7, label %lean_inc.exit26

7:                                                ; preds = %2
  %.val.i = load i32, ptr %4, align 4, !tbaa !8
  %8 = icmp sgt i32 %.val.i, 0
  br i1 %8, label %9, label %11, !prof !11

9:                                                ; preds = %7
  %10 = add nuw i32 %.val.i, 1
  store i32 %10, ptr %4, align 4, !tbaa !8
  br label %lean_inc.exit26

11:                                               ; preds = %7
  %.not.i29 = icmp eq i32 %.val.i, 0
  br i1 %.not.i29, label %lean_inc.exit26, label %12

12:                                               ; preds = %11
  tail call void @lean_inc_ref_cold(ptr noundef nonnull %4) #7
  br label %lean_inc.exit26

lean_inc.exit26:                                  ; preds = %12, %11, %9, %2
  %13 = getelementptr inbounds nuw i8, ptr %1, i64 8
  %14 = load ptr, ptr %13, align 8, !tbaa !4
  %15 = ptrtoint ptr %14 to i64
  %16 = and i64 %15, 1
  %.not39 = icmp eq i64 %16, 0
  br i1 %.not39, label %17, label %lean_inc.exit25

17:                                               ; preds = %lean_inc.exit26
  %.val.i30 = load i32, ptr %14, align 4, !tbaa !8
  %18 = icmp sgt i32 %.val.i30, 0
  br i1 %18, label %19, label %21, !prof !11

19:                                               ; preds = %17
  %20 = add nuw i32 %.val.i30, 1
  store i32 %20, ptr %14, align 4, !tbaa !8
  br label %lean_inc.exit25

21:                                               ; preds = %17
  %.not.i31 = icmp eq i32 %.val.i30, 0
  br i1 %.not.i31, label %lean_inc.exit25, label %22

22:                                               ; preds = %21
  tail call void @lean_inc_ref_cold(ptr noundef nonnull %14) #7
  br label %lean_inc.exit25

lean_inc.exit25:                                  ; preds = %22, %21, %19, %lean_inc.exit26
  %23 = load ptr, ptr @l_Lean_Widget_instAppendExprDiff___closed__1, align 8, !tbaa !4
  %24 = load ptr, ptr @l_Lean_Widget_instAppendExprDiff___closed__2, align 8, !tbaa !4
  %25 = tail call ptr @l_Lean_RBNode_fold___at_Lean_RBMap_mergeBy___spec__1___rarg(ptr noundef %23, ptr noundef %24, ptr noundef %4, ptr noundef %14) #7
  %26 = getelementptr inbounds nuw i8, ptr %0, i64 16
  %27 = load ptr, ptr %26, align 8, !tbaa !4
  %28 = ptrtoint ptr %27 to i64
  %29 = and i64 %28, 1
  %.not40 = icmp eq i64 %29, 0
  br i1 %.not40, label %30, label %lean_inc.exit24

30:                                               ; preds = %lean_inc.exit25
  %.val.i33 = load i32, ptr %27, align 4, !tbaa !8
  %31 = icmp sgt i32 %.val.i33, 0
  br i1 %31, label %32, label %34, !prof !11

32:                                               ; preds = %30
  %33 = add nuw i32 %.val.i33, 1
  store i32 %33, ptr %27, align 4, !tbaa !8
  br label %lean_inc.exit24

34:                                               ; preds = %30
  %.not.i34 = icmp eq i32 %.val.i33, 0
  br i1 %.not.i34, label %lean_inc.exit24, label %35

35:                                               ; preds = %34
  tail call void @lean_inc_ref_cold(ptr noundef nonnull %27) #7
  br label %lean_inc.exit24

lean_inc.exit24:                                  ; preds = %35, %34, %32, %lean_inc.exit25
  %36 = ptrtoint ptr %0 to i64
  %37 = and i64 %36, 1
  %.not41 = icmp eq i64 %37, 0
  br i1 %.not41, label %38, label %lean_dec.exit23

38:                                               ; preds = %lean_inc.exit24
  %39 = load i32, ptr %0, align 4, !tbaa !8
  %40 = icmp sgt i32 %39, 1
  br i1 %40, label %41, label %43, !prof !11

41:                                               ; preds = %38
  %42 = add nsw i32 %39, -1
  store i32 %42, ptr %0, align 4, !tbaa !8
  br label %lean_dec.exit23

43:                                               ; preds = %38
  %.not.i = icmp eq i32 %39, 0
  br i1 %.not.i, label %lean_dec.exit23, label %44

44:                                               ; preds = %43
  tail call void @lean_dec_ref_cold(ptr noundef nonnull %0) #7
  br label %lean_dec.exit23

lean_dec.exit23:                                  ; preds = %44, %43, %41, %lean_inc.exit24
  %45 = getelementptr inbounds nuw i8, ptr %1, i64 16
  %46 = load ptr, ptr %45, align 8, !tbaa !4
  %47 = ptrtoint ptr %46 to i64
  %48 = and i64 %47, 1
  %.not42 = icmp eq i64 %48, 0
  br i1 %.not42, label %49, label %lean_inc.exit

49:                                               ; preds = %lean_dec.exit23
  %.val.i36 = load i32, ptr %46, align 4, !tbaa !8
  %50 = icmp sgt i32 %.val.i36, 0
  br i1 %50, label %51, label %53, !prof !11

51:                                               ; preds = %49
  %52 = add nuw i32 %.val.i36, 1
  store i32 %52, ptr %46, align 4, !tbaa !8
  br label %lean_inc.exit

53:                                               ; preds = %49
  %.not.i37 = icmp eq i32 %.val.i36, 0
  br i1 %.not.i37, label %lean_inc.exit, label %54

54:                                               ; preds = %53
  tail call void @lean_inc_ref_cold(ptr noundef nonnull %46) #7
  br label %lean_inc.exit

lean_inc.exit:                                    ; preds = %54, %53, %51, %lean_dec.exit23
  %55 = ptrtoint ptr %1 to i64
  %56 = and i64 %55, 1
  %.not43 = icmp eq i64 %56, 0
  br i1 %.not43, label %57, label %lean_dec.exit

57:                                               ; preds = %lean_inc.exit
  %58 = load i32, ptr %1, align 4, !tbaa !8
  %59 = icmp sgt i32 %58, 1
  br i1 %59, label %60, label %62, !prof !11

60:                                               ; preds = %57
  %61 = add nsw i32 %58, -1
  store i32 %61, ptr %1, align 4, !tbaa !8
  br label %lean_dec.exit

62:                                               ; preds = %57
  %.not.i27 = icmp eq i32 %58, 0
  br i1 %.not.i27, label %lean_dec.exit, label %63

63:                                               ; preds = %62
  tail call void @lean_dec_ref_cold(ptr noundef nonnull %1) #7
  br label %lean_dec.exit

lean_dec.exit:                                    ; preds = %63, %62, %60, %lean_inc.exit
  %64 = tail call ptr @l_Lean_RBNode_fold___at_Lean_RBMap_mergeBy___spec__1___rarg(ptr noundef %23, ptr noundef %24, ptr noundef %27, ptr noundef %46) #7
  tail call void @lean_inc_heartbeat() #7
  %65 = tail call noalias ptr @mi_malloc_small(i64 noundef 24) #7
  %66 = icmp eq ptr %65, null
  br i1 %66, label %67, label %lean_alloc_ctor.exit

67:                                               ; preds = %lean_dec.exit
  tail call void @lean_internal_panic_out_of_memory() #8
  unreachable

lean_alloc_ctor.exit:                             ; preds = %lean_dec.exit
  %68 = getelementptr inbounds nuw i8, ptr %65, i64 4
  store i32 1, ptr %65, align 4, !tbaa !8
  store i32 131096, ptr %68, align 4
  %69 = getelementptr inbounds nuw i8, ptr %65, i64 8
  store ptr %25, ptr %69, align 8, !tbaa !4
  %70 = getelementptr inbounds nuw i8, ptr %65, i64 16
  store ptr %64, ptr %70, align 8, !tbaa !4
  ret ptr %65
}